; Function Attrs: mustprogress nounwind willreturn uwtable
define void @freeGraphData(ptr noundef captures(address_is_null) %0) local_unnamed_addr #7 {
  %.not = icmp eq ptr %0, null
  br i1 %.not, label %9, label %2

2:                                                ; preds = %1
  %3 = getelementptr inbounds nuw i8, ptr %0, i64 8
  %4 = load ptr, ptr %3, align 8, !tbaa !78
  tail call void @free(ptr noundef %4) #19
  %5 = getelementptr inbounds nuw i8, ptr %0, i64 16
  %6 = load ptr, ptr %5, align 8, !tbaa !81
  tail call void @free(ptr noundef %6) #19
  %7 = getelementptr inbounds nuw i8, ptr %0, i64 32
  %8 = load ptr, ptr %7, align 8, !tbaa !82
  tail call void @free(ptr noundef %8) #19
  tail call void @free(ptr noundef nonnull %0) #19
  br label %9

9:                                                ; preds = %2, %1
  ret void
}